target datalayout = "e-m:e-p270:32:32-p271:32:32-p272:64:64-i64:64-i128:128-f80:128-n8:16:32:64-S128"
target triple = "x86_64-pc-linux-gnu"

%struct.SwsInternal = type { %struct.SwsContext, ptr, ptr, ptr, ptr, i32, [2 x ptr], i32, i32, ptr, i32, i32, i32, i32, i32, i32, i32, i32, i32, i32, i32, i32, i32, i32, i32, i32, i32, i32, ptr, ptr, %struct.RangeList, [3 x ptr], [2 x [4 x i32]], [2 x [4 x ptr]], i32, double, i32, ptr, ptr, i32, [2 x i32], i32, ptr, ptr, [256 x i32], [256 x i32], [256 x float], i32, i32, ptr, i32, ptr, ptr, ptr, ptr, ptr, ptr, ptr, ptr, i32, i32, i32, i32, i32, i32, ptr, ptr, i32, i32, i32, ptr, [8 x i8], [1280 x i32], [1280 x ptr], [1280 x ptr], [1280 x ptr], [176 x i32], [4 x ptr], i32, i32, i32, [4 x i32], [4 x i32], i32, i32, i32, i32, i32, i32, i32, i32, i32, i32, i64, i64, i64, i64, i64, i64, i64, i64, i64, i64, i64, [1024 x i32], [1024 x i32], i32, i64, i64, i64, i64, i64, [1024 x i32], i64, i64, [8 x i16], [8 x i32], ptr, ptr, i32, ptr, ptr, ptr, ptr, [3 x [4 x i16]], [3 x [4 x i16]], ptr, ptr, ptr, ptr, ptr, ptr, ptr, ptr, ptr, ptr, ptr, ptr, ptr, ptr, ptr, ptr, ptr, ptr, ptr, ptr, i32, i32, i64, i64, i32, ptr, i32, ptr, i32, i32, i32, i32, i32, ptr }
%struct.SwsContext = type { ptr, ptr, i32, [2 x double], i32, i32, i32, i32, i32, i32, i32, i32, i32, i32, i32, i32, i32, i32, i32, i32, i32 }
%struct.RangeList = type { ptr, i32, i32 }
%struct.AVFrame = type { [8 x ptr], [8 x i32], ptr, i32, i32, i32, i32, i32, %struct.AVRational, i64, i64, %struct.AVRational, i32, ptr, i32, i32, [8 x ptr], ptr, i32, ptr, i32, i32, i32, i32, i32, i32, i32, i64, ptr, i32, ptr, ptr, i64, i64, i64, i64, ptr, %struct.AVChannelLayout, i64 }
%struct.AVRational = type { i32, i32 }
%struct.AVChannelLayout = type { i32, i32, %union.anon, ptr }
%union.anon = type { i64 }

; Function Attrs: inlinehint nounwind uwtable
define internal ptr @sws_internal(ptr noundef %0) #5 {
  %2 = alloca ptr, align 8
  store ptr %0, ptr %2, align 8, !tbaa !90
  %3 = load ptr, ptr %2, align 8, !tbaa !90
  ret ptr %3
}

; Function Attrs: nounwind uwtable
define void @ff_sws_slice_worker(ptr noundef %0, i32 noundef %1, i32 noundef %2, i32 noundef %3, i32 noundef %4) #0 {
  %6 = alloca ptr, align 8
  %7 = alloca i32, align 4
  %8 = alloca i32, align 4
  %9 = alloca i32, align 4
  %10 = alloca i32, align 4
  %11 = alloca ptr, align 8
  %12 = alloca ptr, align 8
  %13 = alloca ptr, align 8
  %14 = alloca i32, align 4
  %15 = alloca i32, align 4
  %16 = alloca i32, align 4
  %17 = alloca i32, align 4
  %18 = alloca [4 x ptr], align 16
  %19 = alloca i32, align 4
  %20 = alloca i32, align 4
  %21 = alloca i64, align 8
  store ptr %0, ptr %6, align 8, !tbaa !41
  store i32 %1, ptr %7, align 4, !tbaa !14
  store i32 %2, ptr %8, align 4, !tbaa !14
  store i32 %3, ptr %9, align 4, !tbaa !14
  store i32 %4, ptr %10, align 4, !tbaa !14
  call void @llvm.lifetime.start.p0(i64 8, ptr %11) #11
  %22 = load ptr, ptr %6, align 8, !tbaa !41
  store ptr %22, ptr %11, align 8, !tbaa !4
  call void @llvm.lifetime.start.p0(i64 8, ptr %12) #11
  %23 = load ptr, ptr %11, align 8, !tbaa !4
  %24 = getelementptr inbounds nuw %struct.SwsInternal, ptr %23, i32 0, i32 3
  %25 = load ptr, ptr %24, align 16, !tbaa !147
  %26 = load i32, ptr %8, align 4, !tbaa !14
  %27 = sext i32 %26 to i64
  %28 = getelementptr inbounds ptr, ptr %25, i64 %27
  %29 = load ptr, ptr %28, align 8, !tbaa !90
  store ptr %29, ptr %12, align 8, !tbaa !90
  call void @llvm.lifetime.start.p0(i64 8, ptr %13) #11
  %30 = load ptr, ptr %12, align 8, !tbaa !90
  %31 = call ptr @sws_internal(ptr noundef %30)
  store ptr %31, ptr %13, align 8, !tbaa !4
  call void @llvm.lifetime.start.p0(i64 4, ptr %14) #11
  %32 = load ptr, ptr %11, align 8, !tbaa !4
  %33 = getelementptr inbounds nuw %struct.SwsInternal, ptr %32, i32 0, i32 8
  %34 = load i32, ptr %33, align 4, !tbaa !158
  %35 = load i32, ptr %9, align 4, !tbaa !14
  %36 = add nsw i32 %34, %35
  %37 = sub nsw i32 %36, 1
  %38 = load i32, ptr %9, align 4, !tbaa !14
  %39 = sdiv i32 %37, %38
  %40 = icmp sgt i32 %39, 1
  br i1 %40, label %41, label %50

41:                                               ; preds = %5
  %42 = load ptr, ptr %11, align 8, !tbaa !4
  %43 = getelementptr inbounds nuw %struct.SwsInternal, ptr %42, i32 0, i32 8
  %44 = load i32, ptr %43, align 4, !tbaa !158
  %45 = load i32, ptr %9, align 4, !tbaa !14
  %46 = add nsw i32 %44, %45
  %47 = sub nsw i32 %46, 1
  %48 = load i32, ptr %9, align 4, !tbaa !14
  %49 = sdiv i32 %47, %48
  br label %51

50:                                               ; preds = %5
  br label %51

51:                                               ; preds = %50, %41
  %52 = phi i32 [ %49, %41 ], [ 1, %50 ]
  %53 = load ptr, ptr %13, align 8, !tbaa !4
  %54 = getelementptr inbounds nuw %struct.SwsInternal, ptr %53, i32 0, i32 155
  %55 = load i32, ptr %54, align 4, !tbaa !148
  %56 = add i32 %52, %55
  %57 = sub i32 %56, 1
  %58 = load ptr, ptr %13, align 8, !tbaa !4
  %59 = getelementptr inbounds nuw %struct.SwsInternal, ptr %58, i32 0, i32 155
  %60 = load i32, ptr %59, align 4, !tbaa !148
  %61 = sub i32 %60, 1
  %62 = xor i32 %61, -1
  %63 = and i32 %57, %62
  store i32 %63, ptr %14, align 4, !tbaa !14
  call void @llvm.lifetime.start.p0(i64 4, ptr %15) #11
  %64 = load i32, ptr %7, align 4, !tbaa !14
  %65 = load i32, ptr %14, align 4, !tbaa !14
  %66 = mul nsw i32 %64, %65
  store i32 %66, ptr %15, align 4, !tbaa !14
  call void @llvm.lifetime.start.p0(i64 4, ptr %16) #11
  %67 = load i32, ptr %7, align 4, !tbaa !14
  %68 = add nsw i32 %67, 1
  %69 = load i32, ptr %14, align 4, !tbaa !14
  %70 = mul nsw i32 %68, %69
  %71 = load ptr, ptr %11, align 8, !tbaa !4
  %72 = getelementptr inbounds nuw %struct.SwsInternal, ptr %71, i32 0, i32 8
  %73 = load i32, ptr %72, align 4, !tbaa !158
  %74 = icmp sgt i32 %70, %73
  br i1 %74, label %75, label %79

75:                                               ; preds = %51
  %76 = load ptr, ptr %11, align 8, !tbaa !4
  %77 = getelementptr inbounds nuw %struct.SwsInternal, ptr %76, i32 0, i32 8
  %78 = load i32, ptr %77, align 4, !tbaa !158
  br label %84

79:                                               ; preds = %51
  %80 = load i32, ptr %7, align 4, !tbaa !14
  %81 = add nsw i32 %80, 1
  %82 = load i32, ptr %14, align 4, !tbaa !14
  %83 = mul nsw i32 %81, %82
  br label %84

84:                                               ; preds = %79, %75
  %85 = phi i32 [ %78, %75 ], [ %83, %79 ]
  store i32 %85, ptr %16, align 4, !tbaa !14
  call void @llvm.lifetime.start.p0(i64 4, ptr %17) #11
  store i32 0, ptr %17, align 4, !tbaa !14
  %86 = load i32, ptr %16, align 4, !tbaa !14
  %87 = load i32, ptr %15, align 4, !tbaa !14
  %88 = icmp sgt i32 %86, %87
  br i1 %88, label %89, label %184

89:                                               ; preds = %84
  call void @llvm.lifetime.start.p0(i64 32, ptr %18) #11
  call void @llvm.memset.p0.i64(ptr align 16 %18, i8 0, i64 32, i1 false)
  call void @llvm.lifetime.start.p0(i64 4, ptr %19) #11
  store i32 0, ptr %19, align 4, !tbaa !14
  br label %90

90:                                               ; preds = %151, %89
  %91 = load i32, ptr %19, align 4, !tbaa !14
  %92 = sext i32 %91 to i64
  %93 = icmp ult i64 %92, 4
  br i1 %93, label %94, label %104

94:                                               ; preds = %90
  %95 = load ptr, ptr %11, align 8, !tbaa !4
  %96 = getelementptr inbounds nuw %struct.SwsInternal, ptr %95, i32 0, i32 29
  %97 = load ptr, ptr %96, align 8, !tbaa !130
  %98 = getelementptr inbounds nuw %struct.AVFrame, ptr %97, i32 0, i32 0
  %99 = load i32, ptr %19, align 4, !tbaa !14
  %100 = sext i32 %99 to i64
  %101 = getelementptr inbounds [8 x ptr], ptr %98, i64 0, i64 %100
  %102 = load ptr, ptr %101, align 8, !tbaa !60
  %103 = icmp ne ptr %102, null
  br label %104

104:                                              ; preds = %94, %90
  %105 = phi i1 [ false, %90 ], [ %103, %94 ]
  br i1 %105, label %107, label %106

106:                                              ; preds = %104
  call void @llvm.lifetime.end.p0(i64 4, ptr %19) #11
  br label %154

107:                                              ; preds = %104
  call void @llvm.lifetime.start.p0(i64 4, ptr %20) #11
  %108 = load i32, ptr %19, align 4, !tbaa !14
  %109 = icmp eq i32 %108, 1
  br i1 %109, label %113, label %110

110:                                              ; preds = %107
  %111 = load i32, ptr %19, align 4, !tbaa !14
  %112 = icmp eq i32 %111, 2
  br i1 %112, label %113, label %117

113:                                              ; preds = %110, %107
  %114 = load ptr, ptr %13, align 8, !tbaa !4
  %115 = getelementptr inbounds nuw %struct.SwsInternal, ptr %114, i32 0, i32 25
  %116 = load i32, ptr %115, align 4, !tbaa !67
  br label %118

117:                                              ; preds = %110
  br label %118

118:                                              ; preds = %117, %113
  %119 = phi i32 [ %116, %113 ], [ 0, %117 ]
  store i32 %119, ptr %20, align 4, !tbaa !14
  call void @llvm.lifetime.start.p0(i64 8, ptr %21) #11
  %120 = load ptr, ptr %11, align 8, !tbaa !4
  %121 = getelementptr inbounds nuw %struct.SwsInternal, ptr %120, i32 0, i32 29
  %122 = load ptr, ptr %121, align 8, !tbaa !130
  %123 = getelementptr inbounds nuw %struct.AVFrame, ptr %122, i32 0, i32 1
  %124 = load i32, ptr %19, align 4, !tbaa !14
  %125 = sext i32 %124 to i64
  %126 = getelementptr inbounds [8 x i32], ptr %123, i64 0, i64 %125
  %127 = load i32, ptr %126, align 4, !tbaa !14
  %128 = sext i32 %127 to i64
  %129 = load i32, ptr %15, align 4, !tbaa !14
  %130 = load ptr, ptr %11, align 8, !tbaa !4
  %131 = getelementptr inbounds nuw %struct.SwsInternal, ptr %130, i32 0, i32 7
  %132 = load i32, ptr %131, align 8, !tbaa !157
  %133 = add nsw i32 %129, %132
  %134 = load i32, ptr %20, align 4, !tbaa !14
  %135 = ashr i32 %133, %134
  %136 = sext i32 %135 to i64
  %137 = mul nsw i64 %128, %136
  store i64 %137, ptr %21, align 8, !tbaa !105
  %138 = load ptr, ptr %11, align 8, !tbaa !4
  %139 = getelementptr inbounds nuw %struct.SwsInternal, ptr %138, i32 0, i32 29
  %140 = load ptr, ptr %139, align 8, !tbaa !130
  %141 = getelementptr inbounds nuw %struct.AVFrame, ptr %140, i32 0, i32 0
  %142 = load i32, ptr %19, align 4, !tbaa !14
  %143 = sext i32 %142 to i64
  %144 = getelementptr inbounds [8 x ptr], ptr %141, i64 0, i64 %143
  %145 = load ptr, ptr %144, align 8, !tbaa !60
  %146 = load i64, ptr %21, align 8, !tbaa !105
  %147 = getelementptr inbounds i8, ptr %145, i64 %146
  %148 = load i32, ptr %19, align 4, !tbaa !14
  %149 = sext i32 %148 to i64
  %150 = getelementptr inbounds [4 x ptr], ptr %18, i64 0, i64 %149
  store ptr %147, ptr %150, align 8, !tbaa !60
  call void @llvm.lifetime.end.p0(i64 8, ptr %21) #11
  call void @llvm.lifetime.end.p0(i64 4, ptr %20) #11
  br label %151

151:                                              ; preds = %118
  %152 = load i32, ptr %19, align 4, !tbaa !14
  %153 = add nsw i32 %152, 1
  store i32 %153, ptr %19, align 4, !tbaa !14
  br label %90, !llvm.loop !216

154:                                              ; preds = %106
  %155 = load ptr, ptr %12, align 8, !tbaa !90
  %156 = load ptr, ptr %11, align 8, !tbaa !4
  %157 = getelementptr inbounds nuw %struct.SwsInternal, ptr %156, i32 0, i32 28
  %158 = load ptr, ptr %157, align 16, !tbaa !129
  %159 = getelementptr inbounds nuw %struct.AVFrame, ptr %158, i32 0, i32 0
  %160 = getelementptr inbounds [8 x ptr], ptr %159, i64 0, i64 0
  %161 = load ptr, ptr %11, align 8, !tbaa !4
  %162 = getelementptr inbounds nuw %struct.SwsInternal, ptr %161, i32 0, i32 28
  %163 = load ptr, ptr %162, align 16, !tbaa !129
  %164 = getelementptr inbounds nuw %struct.AVFrame, ptr %163, i32 0, i32 1
  %165 = getelementptr inbounds [8 x i32], ptr %164, i64 0, i64 0
  %166 = load ptr, ptr %12, align 8, !tbaa !90
  %167 = getelementptr inbounds nuw %struct.SwsContext, ptr %166, i32 0, i32 9
  %168 = load i32, ptr %167, align 4, !tbaa !153
  %169 = getelementptr inbounds [4 x ptr], ptr %18, i64 0, i64 0
  %170 = load ptr, ptr %11, align 8, !tbaa !4
  %171 = getelementptr inbounds nuw %struct.SwsInternal, ptr %170, i32 0, i32 29
  %172 = load ptr, ptr %171, align 8, !tbaa !130
  %173 = getelementptr inbounds nuw %struct.AVFrame, ptr %172, i32 0, i32 1
  %174 = getelementptr inbounds [8 x i32], ptr %173, i64 0, i64 0
  %175 = load ptr, ptr %11, align 8, !tbaa !4
  %176 = getelementptr inbounds nuw %struct.SwsInternal, ptr %175, i32 0, i32 7
  %177 = load i32, ptr %176, align 8, !tbaa !157
  %178 = load i32, ptr %15, align 4, !tbaa !14
  %179 = add nsw i32 %177, %178
  %180 = load i32, ptr %16, align 4, !tbaa !14
  %181 = load i32, ptr %15, align 4, !tbaa !14
  %182 = sub nsw i32 %180, %181
  %183 = call i32 @scale_internal(ptr noundef %155, ptr noundef %160, ptr noundef %165, i32 noundef 0, i32 noundef %168, ptr noundef %169, ptr noundef %174, i32 noundef %179, i32 noundef %182)
  store i32 %183, ptr %17, align 4, !tbaa !14
  call void @llvm.lifetime.end.p0(i64 32, ptr %18) #11
  br label %184

184:                                              ; preds = %154, %84
  %185 = load i32, ptr %17, align 4, !tbaa !14
  %186 = load ptr, ptr %11, align 8, !tbaa !4
  %187 = getelementptr inbounds nuw %struct.SwsInternal, ptr %186, i32 0, i32 4
  %188 = load ptr, ptr %187, align 8, !tbaa !159
  %189 = load i32, ptr %8, align 4, !tbaa !14
  %190 = sext i32 %189 to i64
  %191 = getelementptr inbounds i32, ptr %188, i64 %190
  store i32 %185, ptr %191, align 4, !tbaa !14
  call void @llvm.lifetime.end.p0(i64 4, ptr %17) #11
  call void @llvm.lifetime.end.p0(i64 4, ptr %16) #11
  call void @llvm.lifetime.end.p0(i64 4, ptr %15) #11
  call void @llvm.lifetime.end.p0(i64 4, ptr %14) #11
  call void @llvm.lifetime.end.p0(i64 8, ptr %13) #11
  call void @llvm.lifetime.end.p0(i64 8, ptr %12) #11
  call void @llvm.lifetime.end.p0(i64 8, ptr %11) #11
  ret void
}