; Function Attrs: nounwind uwtable
define void @ff_sws_slice_worker(ptr noundef readonly captures(none) %0, i32 noundef %1, i32 noundef %2, i32 noundef %3, i32 noundef %4) local_unnamed_addr #0 {
  %6 = alloca [4 x ptr], align 16
  %7 = getelementptr inbounds nuw i8, ptr %0, i64 128
  %8 = load ptr, ptr %7, align 16, !tbaa !136
  %9 = sext i32 %2 to i64
  %10 = getelementptr inbounds ptr, ptr %8, i64 %9
  %11 = load ptr, ptr %10, align 8, !tbaa !137
  %12 = getelementptr inbounds nuw i8, ptr %0, i64 172
  %13 = load i32, ptr %12, align 4, !tbaa !148
  %14 = add i32 %3, -1
  %15 = add i32 %14, %13
  %16 = sdiv i32 %15, %3
  %spec.select = tail call i32 @llvm.smax.i32(i32 %16, i32 1)
  %17 = getelementptr inbounds nuw i8, ptr %11, i64 53188
  %18 = load i32, ptr %17, align 4, !tbaa !138
  %19 = add i32 %18, -1
  %20 = add i32 %19, %spec.select
  %21 = sub i32 0, %18
  %22 = and i32 %20, %21
  %23 = mul nsw i32 %22, %1
  %24 = add nsw i32 %1, 1
  %25 = mul nsw i32 %22, %24
  %26 = tail call i32 @llvm.smin.i32(i32 %25, i32 %13)
  %27 = icmp sgt i32 %26, %23
  br i1 %27, label %28, label %61

28:                                               ; preds = %5
  call void @llvm.lifetime.start.p0(i64 32, ptr nonnull %6) #11
  call void @llvm.memset.p0.i64(ptr noundef nonnull align 16 dereferenceable(32) %6, i8 0, i64 32, i1 false)
  %29 = getelementptr inbounds nuw i8, ptr %0, i64 264
  %30 = load ptr, ptr %29, align 8, !tbaa !120
  %31 = getelementptr inbounds nuw i8, ptr %11, i64 244
  %32 = getelementptr inbounds nuw i8, ptr %30, i64 64
  %33 = getelementptr inbounds nuw i8, ptr %0, i64 168
  br label %34

34:                                               ; preds = %28, %49
  %indvars.iv = phi i64 [ 0, %28 ], [ %indvars.iv.next, %49 ]
  %35 = getelementptr inbounds nuw [8 x ptr], ptr %30, i64 0, i64 %indvars.iv
  %36 = load ptr, ptr %35, align 8, !tbaa !58
  %.not = icmp eq ptr %36, null
  br i1 %.not, label %..critedge_crit_edge, label %44

..critedge_crit_edge:                             ; preds = %34
  %.pre = load i32, ptr %33, align 8, !tbaa !147
  %.pre59 = add nsw i32 %.pre, %23
  br label %.critedge

.critedge:                                        ; preds = %49, %..critedge_crit_edge
  %.pre-phi = phi i32 [ %.pre59, %..critedge_crit_edge ], [ %55, %49 ]
  %37 = getelementptr inbounds nuw i8, ptr %0, i64 256
  %38 = load ptr, ptr %37, align 16, !tbaa !119
  %39 = getelementptr inbounds nuw i8, ptr %38, i64 64
  %40 = getelementptr inbounds nuw i8, ptr %11, i64 60
  %41 = load i32, ptr %40, align 4, !tbaa !143
  %42 = sub nsw i32 %26, %23
  %43 = call fastcc i32 @scale_internal(ptr noundef %11, ptr noundef %38, ptr noundef nonnull %39, i32 noundef 0, i32 noundef %41, ptr noundef nonnull %6, ptr noundef nonnull %32, i32 noundef %.pre-phi, i32 noundef %42)
  call void @llvm.lifetime.end.p0(i64 32, ptr nonnull %6) #11
  br label %61

44:                                               ; preds = %34
  %45 = trunc i64 %indvars.iv to i32
  %46 = add i32 %45, -1
  %or.cond = icmp ult i32 %46, 2
  br i1 %or.cond, label %47, label %49

47:                                               ; preds = %44
  %48 = load i32, ptr %31, align 4, !tbaa !65
  br label %49

49:                                               ; preds = %44, %47
  %50 = phi i32 [ %48, %47 ], [ 0, %44 ]
  %51 = getelementptr inbounds nuw [8 x i32], ptr %32, i64 0, i64 %indvars.iv
  %52 = load i32, ptr %51, align 4, !tbaa !49
  %53 = sext i32 %52 to i64
  %54 = load i32, ptr %33, align 8, !tbaa !147
  %55 = add nsw i32 %54, %23
  %56 = ashr i32 %55, %50
  %57 = sext i32 %56 to i64
  %58 = mul nsw i64 %57, %53
  %59 = getelementptr inbounds i8, ptr %36, i64 %58
  %60 = getelementptr inbounds nuw [4 x ptr], ptr %6, i64 0, i64 %indvars.iv
  store ptr %59, ptr %60, align 8, !tbaa !58
  %indvars.iv.next = add nuw nsw i64 %indvars.iv, 1
  %exitcond.not = icmp eq i64 %indvars.iv.next, 4
  br i1 %exitcond.not, label %.critedge, label %34, !llvm.loop !206

61:                                               ; preds = %.critedge, %5
  %.0 = phi i32 [ %43, %.critedge ], [ 0, %5 ]
  %62 = getelementptr inbounds nuw i8, ptr %0, i64 136
  %63 = load ptr, ptr %62, align 8, !tbaa !149
  %64 = getelementptr inbounds i32, ptr %63, i64 %9
  store i32 %.0, ptr %64, align 4, !tbaa !49
  ret void
}